target datalayout = "e-m:e-p270:32:32-p271:32:32-p272:64:64-i64:64-i128:128-f80:128-n8:16:32:64-S128"
target triple = "x86_64-pc-linux-gnu"

%struct.TupleTableSlotOps = type { i64, ptr, ptr, ptr, ptr, ptr, ptr, ptr, ptr, ptr, ptr, ptr, ptr }
%struct.ForEachState = type { ptr, i32 }
%struct.FunctionScan = type { %struct.Scan, ptr, i8 }
%struct.Scan = type { %struct.Plan, i32 }
%struct.Plan = type { i32, i32, double, double, double, i32, i8, i8, i8, i32, ptr, ptr, ptr, ptr, ptr, ptr, ptr }
%struct.FunctionScanState = type { %struct.ScanState, i32, i8, i8, i64, i32, ptr, ptr }
%struct.ScanState = type { %struct.PlanState, ptr, ptr, ptr }
%struct.PlanState = type { i32, ptr, ptr, ptr, ptr, ptr, ptr, ptr, ptr, ptr, ptr, ptr, ptr, ptr, ptr, ptr, ptr, ptr, i8, ptr, ptr, ptr, ptr, ptr, i8, i8, i8, i8, i8, i8, i8, i8 }
%struct.List = type { i32, i32, i32, ptr, [0 x %union.ListCell] }
%union.ListCell = type { ptr }
%struct.RangeTblFunction = type { i32, ptr, i32, ptr, ptr, ptr, ptr, ptr }
%struct.FunctionScanPerFuncState = type { ptr, ptr, i32, ptr, i64, ptr }
%struct.TupleTableSlot = type { i32, i16, i16, ptr, ptr, ptr, ptr, ptr, %struct.ItemPointerData, i32 }
%struct.ItemPointerData = type { %struct.BlockIdData, i16 }
%struct.BlockIdData = type { i16, i16 }

; Function Attrs: inlinehint nounwind uwtable
define internal ptr @ExecClearTuple(ptr noundef %0) #2 {
  %2 = alloca ptr, align 8
  store ptr %0, ptr %2, align 8
  %3 = load ptr, ptr %2, align 8
  %4 = getelementptr inbounds nuw %struct.TupleTableSlot, ptr %3, i32 0, i32 3
  %5 = load ptr, ptr %4, align 8
  %6 = getelementptr inbounds nuw %struct.TupleTableSlotOps, ptr %5, i32 0, i32 3
  %7 = load ptr, ptr %6, align 8
  %8 = load ptr, ptr %2, align 8
  call void %7(ptr noundef %8)
  %9 = load ptr, ptr %2, align 8
  ret ptr %9
}

; Function Attrs: nounwind uwtable
define dso_local void @ExecReScanFunctionScan(ptr noundef %0) #0 {
  %2 = alloca ptr, align 8
  %3 = alloca ptr, align 8
  %4 = alloca i32, align 4
  %5 = alloca ptr, align 8
  %6 = alloca ptr, align 8
  %7 = alloca ptr, align 8
  %8 = alloca %struct.ForEachState, align 8
  %9 = alloca ptr, align 8
  store ptr %0, ptr %2, align 8
  call void @llvm.lifetime.start.p0(i64 8, ptr %3) #6
  %10 = load ptr, ptr %2, align 8
  %11 = getelementptr inbounds nuw %struct.FunctionScanState, ptr %10, i32 0, i32 0
  %12 = getelementptr inbounds nuw %struct.ScanState, ptr %11, i32 0, i32 0
  %13 = getelementptr inbounds nuw %struct.PlanState, ptr %12, i32 0, i32 1
  %14 = load ptr, ptr %13, align 8
  store ptr %14, ptr %3, align 8
  call void @llvm.lifetime.start.p0(i64 4, ptr %4) #6
  call void @llvm.lifetime.start.p0(i64 8, ptr %5) #6
  %15 = load ptr, ptr %2, align 8
  %16 = getelementptr inbounds nuw %struct.FunctionScanState, ptr %15, i32 0, i32 0
  %17 = getelementptr inbounds nuw %struct.ScanState, ptr %16, i32 0, i32 0
  %18 = getelementptr inbounds nuw %struct.PlanState, ptr %17, i32 0, i32 13
  %19 = load ptr, ptr %18, align 8
  store ptr %19, ptr %5, align 8
  %20 = load ptr, ptr %2, align 8
  %21 = getelementptr inbounds nuw %struct.FunctionScanState, ptr %20, i32 0, i32 0
  %22 = getelementptr inbounds nuw %struct.ScanState, ptr %21, i32 0, i32 0
  %23 = getelementptr inbounds nuw %struct.PlanState, ptr %22, i32 0, i32 15
  %24 = load ptr, ptr %23, align 8
  %25 = icmp ne ptr %24, null
  br i1 %25, label %26, label %33

26:                                               ; preds = %1
  %27 = load ptr, ptr %2, align 8
  %28 = getelementptr inbounds nuw %struct.FunctionScanState, ptr %27, i32 0, i32 0
  %29 = getelementptr inbounds nuw %struct.ScanState, ptr %28, i32 0, i32 0
  %30 = getelementptr inbounds nuw %struct.PlanState, ptr %29, i32 0, i32 15
  %31 = load ptr, ptr %30, align 8
  %32 = call ptr @ExecClearTuple(ptr noundef %31)
  br label %33

33:                                               ; preds = %26, %1
  store i32 0, ptr %4, align 4
  br label %34

34:                                               ; preds = %57, %33
  %35 = load i32, ptr %4, align 4
  %36 = load ptr, ptr %2, align 8
  %37 = getelementptr inbounds nuw %struct.FunctionScanState, ptr %36, i32 0, i32 5
  %38 = load i32, ptr %37, align 8
  %39 = icmp slt i32 %35, %38
  br i1 %39, label %40, label %60

40:                                               ; preds = %34
  call void @llvm.lifetime.start.p0(i64 8, ptr %6) #6
  %41 = load ptr, ptr %2, align 8
  %42 = getelementptr inbounds nuw %struct.FunctionScanState, ptr %41, i32 0, i32 6
  %43 = load ptr, ptr %42, align 8
  %44 = load i32, ptr %4, align 4
  %45 = sext i32 %44 to i64
  %46 = getelementptr inbounds %struct.FunctionScanPerFuncState, ptr %43, i64 %45
  store ptr %46, ptr %6, align 8
  %47 = load ptr, ptr %6, align 8
  %48 = getelementptr inbounds nuw %struct.FunctionScanPerFuncState, ptr %47, i32 0, i32 5
  %49 = load ptr, ptr %48, align 8
  %50 = icmp ne ptr %49, null
  br i1 %50, label %51, label %56

51:                                               ; preds = %40
  %52 = load ptr, ptr %6, align 8
  %53 = getelementptr inbounds nuw %struct.FunctionScanPerFuncState, ptr %52, i32 0, i32 5
  %54 = load ptr, ptr %53, align 8
  %55 = call ptr @ExecClearTuple(ptr noundef %54)
  br label %56

56:                                               ; preds = %51, %40
  call void @llvm.lifetime.end.p0(i64 8, ptr %6) #6
  br label %57

57:                                               ; preds = %56
  %58 = load i32, ptr %4, align 4
  %59 = add i32 %58, 1
  store i32 %59, ptr %4, align 4
  br label %34, !llvm.loop !11

60:                                               ; preds = %34
  %61 = load ptr, ptr %2, align 8
  %62 = getelementptr inbounds nuw %struct.FunctionScanState, ptr %61, i32 0, i32 0
  call void @ExecScanReScan(ptr noundef %62)
  %63 = load ptr, ptr %5, align 8
  %64 = icmp ne ptr %63, null
  br i1 %64, label %65, label %148

65:                                               ; preds = %60
  call void @llvm.lifetime.start.p0(i64 8, ptr %7) #6
  store i32 0, ptr %4, align 4
  call void @llvm.lifetime.start.p0(i64 16, ptr %8) #6
  %66 = getelementptr inbounds nuw %struct.ForEachState, ptr %8, i32 0, i32 0
  %67 = load ptr, ptr %3, align 8
  %68 = getelementptr inbounds nuw %struct.FunctionScan, ptr %67, i32 0, i32 1
  %69 = load ptr, ptr %68, align 8
  store ptr %69, ptr %66, align 8
  %70 = getelementptr inbounds nuw %struct.ForEachState, ptr %8, i32 0, i32 1
  store i32 0, ptr %70, align 8
  %71 = getelementptr i8, ptr %8, i64 12
  call void @llvm.memset.p0.i64(ptr align 4 %71, i8 0, i64 4, i1 false)
  br label %72

72:                                               ; preds = %143, %65
  %73 = getelementptr inbounds nuw %struct.ForEachState, ptr %8, i32 0, i32 0
  %74 = load ptr, ptr %73, align 8
  %75 = icmp ne ptr %74, null
  br i1 %75, label %76, label %93

76:                                               ; preds = %72
  %77 = getelementptr inbounds nuw %struct.ForEachState, ptr %8, i32 0, i32 1
  %78 = load i32, ptr %77, align 8
  %79 = getelementptr inbounds nuw %struct.ForEachState, ptr %8, i32 0, i32 0
  %80 = load ptr, ptr %79, align 8
  %81 = getelementptr inbounds nuw %struct.List, ptr %80, i32 0, i32 1
  %82 = load i32, ptr %81, align 4
  %83 = icmp slt i32 %78, %82
  br i1 %83, label %84, label %93

84:                                               ; preds = %76
  %85 = getelementptr inbounds nuw %struct.ForEachState, ptr %8, i32 0, i32 0
  %86 = load ptr, ptr %85, align 8
  %87 = getelementptr inbounds nuw %struct.List, ptr %86, i32 0, i32 3
  %88 = load ptr, ptr %87, align 8
  %89 = getelementptr inbounds nuw %struct.ForEachState, ptr %8, i32 0, i32 1
  %90 = load i32, ptr %89, align 8
  %91 = sext i32 %90 to i64
  %92 = getelementptr inbounds %union.ListCell, ptr %88, i64 %91
  store ptr %92, ptr %7, align 8
  br label %94

93:                                               ; preds = %76, %72
  store ptr null, ptr %7, align 8
  br label %94

94:                                               ; preds = %93, %84
  %95 = phi i32 [ 1, %84 ], [ 0, %93 ]
  %96 = icmp ne i32 %95, 0
  br i1 %96, label %98, label %97

97:                                               ; preds = %94
  call void @llvm.lifetime.end.p0(i64 16, ptr %8) #6
  br label %147

98:                                               ; preds = %94
  call void @llvm.lifetime.start.p0(i64 8, ptr %9) #6
  %99 = load ptr, ptr %7, align 8
  %100 = load ptr, ptr %99, align 8
  store ptr %100, ptr %9, align 8
  %101 = load ptr, ptr %5, align 8
  %102 = load ptr, ptr %9, align 8
  %103 = getelementptr inbounds nuw %struct.RangeTblFunction, ptr %102, i32 0, i32 7
  %104 = load ptr, ptr %103, align 8
  %105 = call zeroext i1 @bms_overlap(ptr noundef %101, ptr noundef %104)
  br i1 %105, label %106, label %140

106:                                              ; preds = %98
  %107 = load ptr, ptr %2, align 8
  %108 = getelementptr inbounds nuw %struct.FunctionScanState, ptr %107, i32 0, i32 6
  %109 = load ptr, ptr %108, align 8
  %110 = load i32, ptr %4, align 4
  %111 = sext i32 %110 to i64
  %112 = getelementptr inbounds %struct.FunctionScanPerFuncState, ptr %109, i64 %111
  %113 = getelementptr inbounds nuw %struct.FunctionScanPerFuncState, ptr %112, i32 0, i32 3
  %114 = load ptr, ptr %113, align 8
  %115 = icmp ne ptr %114, null
  br i1 %115, label %116, label %132

116:                                              ; preds = %106
  %117 = load ptr, ptr %2, align 8
  %118 = getelementptr inbounds nuw %struct.FunctionScanState, ptr %117, i32 0, i32 6
  %119 = load ptr, ptr %118, align 8
  %120 = load i32, ptr %4, align 4
  %121 = sext i32 %120 to i64
  %122 = getelementptr inbounds %struct.FunctionScanPerFuncState, ptr %119, i64 %121
  %123 = getelementptr inbounds nuw %struct.FunctionScanPerFuncState, ptr %122, i32 0, i32 3
  %124 = load ptr, ptr %123, align 8
  call void @tuplestore_end(ptr noundef %124)
  %125 = load ptr, ptr %2, align 8
  %126 = getelementptr inbounds nuw %struct.FunctionScanState, ptr %125, i32 0, i32 6
  %127 = load ptr, ptr %126, align 8
  %128 = load i32, ptr %4, align 4
  %129 = sext i32 %128 to i64
  %130 = getelementptr inbounds %struct.FunctionScanPerFuncState, ptr %127, i64 %129
  %131 = getelementptr inbounds nuw %struct.FunctionScanPerFuncState, ptr %130, i32 0, i32 3
  store ptr null, ptr %131, align 8
  br label %132

132:                                              ; preds = %116, %106
  %133 = load ptr, ptr %2, align 8
  %134 = getelementptr inbounds nuw %struct.FunctionScanState, ptr %133, i32 0, i32 6
  %135 = load ptr, ptr %134, align 8
  %136 = load i32, ptr %4, align 4
  %137 = sext i32 %136 to i64
  %138 = getelementptr inbounds %struct.FunctionScanPerFuncState, ptr %135, i64 %137
  %139 = getelementptr inbounds nuw %struct.FunctionScanPerFuncState, ptr %138, i32 0, i32 4
  store i64 -1, ptr %139, align 8
  br label %140

140:                                              ; preds = %132, %98
  %141 = load i32, ptr %4, align 4
  %142 = add i32 %141, 1
  store i32 %142, ptr %4, align 4
  call void @llvm.lifetime.end.p0(i64 8, ptr %9) #6
  br label %143

143:                                              ; preds = %140
  %144 = getelementptr inbounds nuw %struct.ForEachState, ptr %8, i32 0, i32 1
  %145 = load i32, ptr %144, align 8
  %146 = add i32 %145, 1
  store i32 %146, ptr %144, align 8
  br label %72, !llvm.loop !12

147:                                              ; preds = %97
  call void @llvm.lifetime.end.p0(i64 8, ptr %7) #6
  br label %148

148:                                              ; preds = %147, %60
  %149 = load ptr, ptr %2, align 8
  %150 = getelementptr inbounds nuw %struct.FunctionScanState, ptr %149, i32 0, i32 4
  store i64 0, ptr %150, align 8
  store i32 0, ptr %4, align 4
  br label %151

151:                                              ; preds = %177, %148
  %152 = load i32, ptr %4, align 4
  %153 = load ptr, ptr %2, align 8
  %154 = getelementptr inbounds nuw %struct.FunctionScanState, ptr %153, i32 0, i32 5
  %155 = load i32, ptr %154, align 8
  %156 = icmp slt i32 %152, %155
  br i1 %156, label %157, label %180

157:                                              ; preds = %151
  %158 = load ptr, ptr %2, align 8
  %159 = getelementptr inbounds nuw %struct.FunctionScanState, ptr %158, i32 0, i32 6
  %160 = load ptr, ptr %159, align 8
  %161 = load i32, ptr %4, align 4
  %162 = sext i32 %161 to i64
  %163 = getelementptr inbounds %struct.FunctionScanPerFuncState, ptr %160, i64 %162
  %164 = getelementptr inbounds nuw %struct.FunctionScanPerFuncState, ptr %163, i32 0, i32 3
  %165 = load ptr, ptr %164, align 8
  %166 = icmp ne ptr %165, null
  br i1 %166, label %167, label %176

167:                                              ; preds = %157
  %168 = load ptr, ptr %2, align 8
  %169 = getelementptr inbounds nuw %struct.FunctionScanState, ptr %168, i32 0, i32 6
  %170 = load ptr, ptr %169, align 8
  %171 = load i32, ptr %4, align 4
  %172 = sext i32 %171 to i64
  %173 = getelementptr inbounds %struct.FunctionScanPerFuncState, ptr %170, i64 %172
  %174 = getelementptr inbounds nuw %struct.FunctionScanPerFuncState, ptr %173, i32 0, i32 3
  %175 = load ptr, ptr %174, align 8
  call void @tuplestore_rescan(ptr noundef %175)
  br label %176

176:                                              ; preds = %167, %157
  br label %177

177:                                              ; preds = %176
  %178 = load i32, ptr %4, align 4
  %179 = add i32 %178, 1
  store i32 %179, ptr %4, align 4
  br label %151, !llvm.loop !13

180:                                              ; preds = %151
  call void @llvm.lifetime.end.p0(i64 8, ptr %5) #6
  call void @llvm.lifetime.end.p0(i64 4, ptr %4) #6
  call void @llvm.lifetime.end.p0(i64 8, ptr %3) #6
  ret void
}