; Function Attrs: nounwind uwtable
define dso_local void @ExecReScanFunctionScan(ptr noundef %0) local_unnamed_addr #0 {
  %2 = getelementptr inbounds nuw i8, ptr %0, i64 8
  %3 = load ptr, ptr %2, align 8
  %4 = getelementptr inbounds nuw i8, ptr %0, i64 104
  %5 = load ptr, ptr %4, align 8
  %6 = getelementptr inbounds nuw i8, ptr %0, i64 120
  %7 = load ptr, ptr %6, align 8
  %.not = icmp eq ptr %7, null
  br i1 %.not, label %13, label %8

8:                                                ; preds = %1
  %9 = getelementptr inbounds nuw i8, ptr %7, i64 8
  %10 = load ptr, ptr %9, align 8
  %11 = getelementptr inbounds nuw i8, ptr %10, i64 24
  %12 = load ptr, ptr %11, align 8
  tail call void %12(ptr noundef nonnull %7) #6
  br label %13

13:                                               ; preds = %8, %1
  %14 = getelementptr inbounds nuw i8, ptr %0, i64 240
  %15 = load i32, ptr %14, align 8
  %16 = icmp sgt i32 %15, 0
  br i1 %16, label %.lr.ph, label %._crit_edge

.lr.ph:                                           ; preds = %13
  %17 = getelementptr inbounds nuw i8, ptr %0, i64 248
  br label %18

18:                                               ; preds = %.lr.ph, %28
  %19 = phi i32 [ %15, %.lr.ph ], [ %29, %28 ]
  %indvars.iv = phi i64 [ 0, %.lr.ph ], [ %indvars.iv.next, %28 ]
  %20 = load ptr, ptr %17, align 8
  %21 = getelementptr inbounds nuw %struct.FunctionScanPerFuncState, ptr %20, i64 %indvars.iv, i32 5
  %22 = load ptr, ptr %21, align 8
  %.not49 = icmp eq ptr %22, null
  br i1 %.not49, label %28, label %23

23:                                               ; preds = %18
  %24 = getelementptr inbounds nuw i8, ptr %22, i64 8
  %25 = load ptr, ptr %24, align 8
  %26 = getelementptr inbounds nuw i8, ptr %25, i64 24
  %27 = load ptr, ptr %26, align 8
  tail call void %27(ptr noundef nonnull %22) #6
  %.pre = load i32, ptr %14, align 8
  br label %28

28:                                               ; preds = %23, %18
  %29 = phi i32 [ %.pre, %23 ], [ %19, %18 ]
  %indvars.iv.next = add nuw nsw i64 %indvars.iv, 1
  %30 = sext i32 %29 to i64
  %31 = icmp slt i64 %indvars.iv.next, %30
  br i1 %31, label %18, label %._crit_edge, !llvm.loop !10

._crit_edge:                                      ; preds = %28, %13
  tail call void @ExecScanReScan(ptr noundef nonnull %0) #6
  %.not44 = icmp eq ptr %5, null
  br i1 %.not44, label %.thread, label %32

32:                                               ; preds = %._crit_edge
  %33 = getelementptr inbounds nuw i8, ptr %3, i64 112
  %34 = load ptr, ptr %33, align 8
  %35 = getelementptr inbounds nuw i8, ptr %34, i64 4
  %.not45 = icmp eq ptr %34, null
  br i1 %.not45, label %.thread, label %.lr.ph56

.lr.ph56:                                         ; preds = %32
  %36 = getelementptr inbounds nuw i8, ptr %34, i64 16
  %37 = getelementptr inbounds nuw i8, ptr %0, i64 248
  %38 = load i32, ptr %35, align 4
  %39 = icmp sgt i32 %38, 0
  br i1 %39, label %.lr.ph60, label %.thread

.lr.ph60:                                         ; preds = %.lr.ph56, %56
  %indvars.iv65 = phi i64 [ %indvars.iv.next66, %56 ], [ 0, %.lr.ph56 ]
  %40 = load ptr, ptr %36, align 8
  %41 = getelementptr inbounds nuw %union.ListCell, ptr %40, i64 %indvars.iv65
  %42 = load ptr, ptr %41, align 8
  %43 = getelementptr inbounds nuw i8, ptr %42, i64 56
  %44 = load ptr, ptr %43, align 8
  %45 = tail call zeroext i1 @bms_overlap(ptr noundef nonnull %5, ptr noundef %44) #6
  br i1 %45, label %46, label %56

46:                                               ; preds = %.lr.ph60
  %47 = load ptr, ptr %37, align 8
  %48 = getelementptr inbounds nuw %struct.FunctionScanPerFuncState, ptr %47, i64 %indvars.iv65, i32 3
  %49 = load ptr, ptr %48, align 8
  %.not48 = icmp eq ptr %49, null
  br i1 %.not48, label %53, label %50

50:                                               ; preds = %46
  tail call void @tuplestore_end(ptr noundef nonnull %49) #6
  %51 = load ptr, ptr %37, align 8
  %52 = getelementptr inbounds nuw %struct.FunctionScanPerFuncState, ptr %51, i64 %indvars.iv65, i32 3
  store ptr null, ptr %52, align 8
  %.pre73 = load ptr, ptr %37, align 8
  br label %53

53:                                               ; preds = %50, %46
  %54 = phi ptr [ %.pre73, %50 ], [ %47, %46 ]
  %55 = getelementptr inbounds nuw %struct.FunctionScanPerFuncState, ptr %54, i64 %indvars.iv65, i32 4
  store i64 -1, ptr %55, align 8
  br label %56

56:                                               ; preds = %53, %.lr.ph60
  %indvars.iv.next66 = add nuw nsw i64 %indvars.iv65, 1
  %57 = load i32, ptr %35, align 4
  %58 = sext i32 %57 to i64
  %59 = icmp slt i64 %indvars.iv.next66, %58
  br i1 %59, label %.lr.ph60, label %.thread

.thread:                                          ; preds = %56, %32, %.lr.ph56, %._crit_edge
  %60 = getelementptr inbounds nuw i8, ptr %0, i64 232
  store i64 0, ptr %60, align 8
  %61 = load i32, ptr %14, align 8
  %62 = icmp sgt i32 %61, 0
  br i1 %62, label %.lr.ph62, label %._crit_edge63

.lr.ph62:                                         ; preds = %.thread
  %63 = getelementptr inbounds nuw i8, ptr %0, i64 248
  br label %64

64:                                               ; preds = %.lr.ph62, %70
  %65 = phi i32 [ %61, %.lr.ph62 ], [ %71, %70 ]
  %indvars.iv70 = phi i64 [ 0, %.lr.ph62 ], [ %indvars.iv.next71, %70 ]
  %66 = load ptr, ptr %63, align 8
  %67 = getelementptr inbounds nuw %struct.FunctionScanPerFuncState, ptr %66, i64 %indvars.iv70, i32 3
  %68 = load ptr, ptr %67, align 8
  %.not47 = icmp eq ptr %68, null
  br i1 %.not47, label %70, label %69

69:                                               ; preds = %64
  tail call void @tuplestore_rescan(ptr noundef nonnull %68) #6
  %.pre74 = load i32, ptr %14, align 8
  br label %70

70:                                               ; preds = %64, %69
  %71 = phi i32 [ %65, %64 ], [ %.pre74, %69 ]
  %indvars.iv.next71 = add nuw nsw i64 %indvars.iv70, 1
  %72 = sext i32 %71 to i64
  %73 = icmp slt i64 %indvars.iv.next71, %72
  br i1 %73, label %64, label %._crit_edge63, !llvm.loop !11

._crit_edge63:                                    ; preds = %70, %.thread
  ret void
}